; Function Attrs: nofree norecurse nosync nounwind memory(read, inaccessiblemem: none) uwtable
define range(i32 -32768, 32768) i32 @stbtt_GetGlyphKernAdvance(ptr noundef readonly captures(none) %0, i32 noundef %1, i32 noundef %2) local_unnamed_addr #8 {
  %4 = getelementptr inbounds nuw i8, ptr %0, i64 48
  %5 = load i32, ptr %4, align 8, !tbaa !31
  %.not = icmp eq i32 %5, 0
  br i1 %.not, label %8, label %6

6:                                                ; preds = %3
  %7 = tail call i32 @stbtt__GetGlyphGPOSInfoAdvance(ptr noundef nonnull %0, i32 noundef %1, i32 noundef %2)
  br label %stbtt__GetGlyphKernInfoAdvance.exit

8:                                                ; preds = %3
  %9 = getelementptr inbounds nuw i8, ptr %0, i64 44
  %10 = load i32, ptr %9, align 4, !tbaa !30
  %.not10 = icmp eq i32 %10, 0
  br i1 %.not10, label %stbtt__GetGlyphKernInfoAdvance.exit, label %11

11:                                               ; preds = %8
  %12 = getelementptr inbounds nuw i8, ptr %0, i64 8
  %13 = load ptr, ptr %12, align 8, !tbaa !23
  %14 = sext i32 %10 to i64
  %15 = getelementptr inbounds i8, ptr %13, i64 %14
  %16 = getelementptr inbounds nuw i8, ptr %15, i64 2
  %17 = load i8, ptr %16, align 1, !tbaa !12
  %18 = zext i8 %17 to i16
  %19 = shl nuw i16 %18, 8
  %20 = getelementptr inbounds nuw i8, ptr %15, i64 3
  %21 = load i8, ptr %20, align 1, !tbaa !12
  %22 = zext i8 %21 to i16
  %23 = or disjoint i16 %19, %22
  %24 = icmp eq i16 %23, 0
  br i1 %24, label %stbtt__GetGlyphKernInfoAdvance.exit, label %25

25:                                               ; preds = %11
  %26 = getelementptr inbounds nuw i8, ptr %15, i64 8
  %27 = load i8, ptr %26, align 1, !tbaa !12
  %28 = zext i8 %27 to i16
  %29 = shl nuw i16 %28, 8
  %30 = getelementptr inbounds nuw i8, ptr %15, i64 9
  %31 = load i8, ptr %30, align 1, !tbaa !12
  %32 = zext i8 %31 to i16
  %33 = or disjoint i16 %29, %32
  %.not27.i = icmp eq i16 %33, 1
  br i1 %.not27.i, label %34, label %stbtt__GetGlyphKernInfoAdvance.exit

34:                                               ; preds = %25
  %35 = getelementptr inbounds nuw i8, ptr %15, i64 10
  %36 = load i8, ptr %35, align 1, !tbaa !12
  %37 = zext i8 %36 to i32
  %38 = shl nuw nsw i32 %37, 8
  %39 = getelementptr inbounds nuw i8, ptr %15, i64 11
  %40 = load i8, ptr %39, align 1, !tbaa !12
  %41 = zext i8 %40 to i32
  %42 = or disjoint i32 %38, %41
  %43 = shl i32 %1, 16
  %44 = or i32 %43, %2
  %.not2829.i = icmp eq i32 %42, 0
  br i1 %.not2829.i, label %stbtt__GetGlyphKernInfoAdvance.exit, label %.lr.ph.i

.lr.ph.i:                                         ; preds = %34
  %45 = add nsw i32 %42, -1
  %46 = getelementptr inbounds nuw i8, ptr %15, i64 18
  br label %47

47:                                               ; preds = %88, %.lr.ph.i
  %.02231.i = phi i32 [ %45, %.lr.ph.i ], [ %.1.i, %88 ]
  %.02330.i = phi i32 [ 0, %.lr.ph.i ], [ %.124.i, %88 ]
  %48 = add nsw i32 %.02330.i, %.02231.i
  %49 = ashr i32 %48, 1
  %50 = mul nsw i32 %49, 6
  %51 = sext i32 %50 to i64
  %52 = getelementptr inbounds i8, ptr %46, i64 %51
  %53 = load i8, ptr %52, align 1, !tbaa !12
  %54 = zext i8 %53 to i32
  %55 = shl nuw i32 %54, 24
  %56 = getelementptr inbounds nuw i8, ptr %52, i64 1
  %57 = load i8, ptr %56, align 1, !tbaa !12
  %58 = zext i8 %57 to i32
  %59 = shl nuw nsw i32 %58, 16
  %60 = or disjoint i32 %59, %55
  %61 = getelementptr inbounds nuw i8, ptr %52, i64 2
  %62 = load i8, ptr %61, align 1, !tbaa !12
  %63 = zext i8 %62 to i32
  %64 = shl nuw nsw i32 %63, 8
  %65 = or disjoint i32 %60, %64
  %66 = getelementptr inbounds nuw i8, ptr %52, i64 3
  %67 = load i8, ptr %66, align 1, !tbaa !12
  %68 = zext i8 %67 to i32
  %69 = or disjoint i32 %65, %68
  %70 = icmp ult i32 %44, %69
  br i1 %70, label %71, label %73

71:                                               ; preds = %47
  %72 = add nsw i32 %49, -1
  br label %88

73:                                               ; preds = %47
  %74 = icmp ugt i32 %44, %69
  br i1 %74, label %75, label %77

75:                                               ; preds = %73
  %76 = add nsw i32 %49, 1
  br label %88

77:                                               ; preds = %73
  %78 = getelementptr inbounds nuw i8, ptr %15, i64 22
  %79 = getelementptr inbounds i8, ptr %78, i64 %51
  %80 = load i8, ptr %79, align 1, !tbaa !12
  %81 = zext i8 %80 to i16
  %82 = shl nuw i16 %81, 8
  %83 = getelementptr inbounds nuw i8, ptr %79, i64 1
  %84 = load i8, ptr %83, align 1, !tbaa !12
  %85 = zext i8 %84 to i16
  %86 = or disjoint i16 %82, %85
  %87 = sext i16 %86 to i32
  br label %stbtt__GetGlyphKernInfoAdvance.exit

88:                                               ; preds = %75, %71
  %.124.i = phi i32 [ %.02330.i, %71 ], [ %76, %75 ]
  %.1.i = phi i32 [ %72, %71 ], [ %.02231.i, %75 ]
  %.not28.i = icmp sgt i32 %.124.i, %.1.i
  br i1 %.not28.i, label %stbtt__GetGlyphKernInfoAdvance.exit, label %47, !llvm.loop !84

stbtt__GetGlyphKernInfoAdvance.exit:              ; preds = %88, %77, %34, %25, %11, %8, %6
  %.0 = phi i32 [ %7, %6 ], [ 0, %8 ], [ %87, %77 ], [ 0, %11 ], [ 0, %25 ], [ 0, %34 ], [ 0, %88 ]
  ret i32 %.0
}